; Function Attrs: mustprogress null_pointer_is_valid sspstrong uwtable
define void @_ZN16ImportTextDialog36on_encapComboBox_currentIndexChangedEi(ptr noundef align 8 dereferenceable_or_null(305) %0, i32 noundef %1) local_unnamed_addr #2 align 2 personality ptr @__gxx_personality_v0 {
  %3 = alloca %class.QVariant, align 8
  call void @llvm.lifetime.start.p0(i64 32, ptr nonnull %3) #27
  %4 = getelementptr inbounds nuw i8, ptr %0, i64 40
  %5 = load ptr, ptr %4, align 8
  %6 = getelementptr inbounds nuw i8, ptr %5, i64 448
  %7 = load ptr, ptr %6, align 8
  call void @_ZNK9QComboBox8itemDataEii(ptr dead_on_unwind nonnull writable sret(%class.QVariant) align 8 %3, ptr noundef align 8 dereferenceable_or_null(40) %7, i32 noundef %1, i32 noundef 256)
  %8 = getelementptr inbounds nuw i8, ptr %3, i64 24
  %9 = load i64, ptr %8, align 8
  %10 = and i64 %9, -4
  %11 = inttoptr i64 %10 to ptr
  %12 = invoke noundef zeroext i1 @_ZN9QMetaType10canConvertES_S_(ptr %11, ptr nonnull @_ZN9QtPrivate25QMetaTypeInterfaceWrapperIiE8metaTypeE)
          to label %_ZNK8QVariant10canConvertIiEEbv.exit unwind label %15

_ZNK8QVariant10canConvertIiEEbv.exit:             ; preds = %2
  br i1 %12, label %13, label %17

13:                                               ; preds = %_ZNK8QVariant10canConvertIiEEbv.exit
  %14 = invoke noundef i32 @_ZNK8QVariant6toUIntEPb(ptr noundef nonnull align 8 dereferenceable_or_null(32) %3, ptr noundef null)
          to label %17 unwind label %15

15:                                               ; preds = %2, %17, %13
  %16 = landingpad { ptr, i32 }
          cleanup
  call void @_ZN8QVariantD1Ev(ptr noundef nonnull align 8 dereferenceable_or_null(32) %3) #27
  call void @llvm.lifetime.end.p0(i64 32, ptr nonnull %3) #27
  resume { ptr, i32 } %16

17:                                               ; preds = %_ZNK8QVariant10canConvertIiEEbv.exit, %13
  %.sink = phi i32 [ %14, %13 ], [ 0, %_ZNK8QVariant10canConvertIiEEbv.exit ]
  %18 = getelementptr inbounds nuw i8, ptr %0, i64 160
  store i32 %.sink, ptr %18, align 8
  invoke void @_ZN16ImportTextDialog19enableHeaderWidgetsEj(ptr noundef align 8 dereferenceable_or_null(305) %0, i32 noundef %.sink)
          to label %19 unwind label %15

19:                                               ; preds = %17
  call void @_ZN8QVariantD1Ev(ptr noundef nonnull align 8 dereferenceable_or_null(32) %3) #27
  call void @llvm.lifetime.end.p0(i64 32, ptr nonnull %3) #27
  ret void
}